target datalayout = "e-m:e-p270:32:32-p271:32:32-p272:64:64-i64:64-i128:128-f80:128-n8:16:32:64-S128"
target triple = "x86_64-pc-linux-gnu"

%struct.ic_env_s = type { ptr, ptr, ptr, ptr, ptr, ptr, ptr, ptr, ptr, ptr, ptr, ptr, ptr, i8, i8, i8, i8, i8, i8, i8, i8, i8, i8, i8, i8, i8, i64 }
%struct.completions_s = type { ptr, ptr, i64, i64, i64, ptr, ptr }

@rpenv = internal global ptr null, align 8

; Function Attrs: nounwind uwtable
define internal void @completions_set_completer(ptr noundef %0, ptr noundef %1, ptr noundef %2) #0 {
  %4 = alloca ptr, align 8
  %5 = alloca ptr, align 8
  %6 = alloca ptr, align 8
  store ptr %0, ptr %4, align 8, !tbaa !111
  store ptr %1, ptr %5, align 8, !tbaa !51
  store ptr %2, ptr %6, align 8, !tbaa !51
  %7 = load ptr, ptr %5, align 8, !tbaa !51
  %8 = load ptr, ptr %4, align 8, !tbaa !111
  %9 = getelementptr inbounds nuw %struct.completions_s, ptr %8, i32 0, i32 0
  store ptr %7, ptr %9, align 8, !tbaa !112
  %10 = load ptr, ptr %6, align 8, !tbaa !51
  %11 = load ptr, ptr %4, align 8, !tbaa !111
  %12 = getelementptr inbounds nuw %struct.completions_s, ptr %11, i32 0, i32 1
  store ptr %10, ptr %12, align 8, !tbaa !101
  ret void
}

; Function Attrs: nounwind uwtable
define dso_local void @ic_set_default_highlighter(ptr noundef %0, ptr noundef %1) #0 {
  %3 = alloca ptr, align 8
  %4 = alloca ptr, align 8
  %5 = alloca ptr, align 8
  %6 = alloca i32, align 4
  store ptr %0, ptr %3, align 8, !tbaa !51
  store ptr %1, ptr %4, align 8, !tbaa !51
  call void @llvm.lifetime.start.p0(i64 8, ptr %5) #13
  %7 = call ptr @ic_get_env()
  store ptr %7, ptr %5, align 8, !tbaa !65
  %8 = load ptr, ptr %5, align 8, !tbaa !65
  %9 = icmp eq ptr %8, null
  br i1 %9, label %10, label %11

10:                                               ; preds = %2
  store i32 1, ptr %6, align 4
  br label %18

11:                                               ; preds = %2
  %12 = load ptr, ptr %3, align 8, !tbaa !51
  %13 = load ptr, ptr %5, align 8, !tbaa !65
  %14 = getelementptr inbounds nuw %struct.ic_env_s, ptr %13, i32 0, i32 9
  store ptr %12, ptr %14, align 8, !tbaa !174
  %15 = load ptr, ptr %4, align 8, !tbaa !51
  %16 = load ptr, ptr %5, align 8, !tbaa !65
  %17 = getelementptr inbounds nuw %struct.ic_env_s, ptr %16, i32 0, i32 10
  store ptr %15, ptr %17, align 8, !tbaa !175
  store i32 0, ptr %6, align 4
  br label %18

18:                                               ; preds = %11, %10
  call void @llvm.lifetime.end.p0(i64 8, ptr %5) #13
  %19 = load i32, ptr %6, align 4
  switch i32 %19, label %21 [
    i32 0, label %20
    i32 1, label %20
  ]

20:                                               ; preds = %18, %18
  ret void

21:                                               ; preds = %18
  unreachable
}

; Function Attrs: nounwind uwtable
define dso_local void @ic_set_default_completer(ptr noundef %0, ptr noundef %1) #0 {
  %3 = alloca ptr, align 8
  %4 = alloca ptr, align 8
  %5 = alloca ptr, align 8
  %6 = alloca i32, align 4
  store ptr %0, ptr %3, align 8, !tbaa !51
  store ptr %1, ptr %4, align 8, !tbaa !51
  call void @llvm.lifetime.start.p0(i64 8, ptr %5) #13
  %7 = call ptr @ic_get_env()
  store ptr %7, ptr %5, align 8, !tbaa !65
  %8 = load ptr, ptr %5, align 8, !tbaa !65
  %9 = icmp eq ptr %8, null
  br i1 %9, label %10, label %11

10:                                               ; preds = %2
  store i32 1, ptr %6, align 4
  br label %17

11:                                               ; preds = %2
  %12 = load ptr, ptr %5, align 8, !tbaa !65
  %13 = getelementptr inbounds nuw %struct.ic_env_s, ptr %12, i32 0, i32 4
  %14 = load ptr, ptr %13, align 8, !tbaa !100
  %15 = load ptr, ptr %3, align 8, !tbaa !51
  %16 = load ptr, ptr %4, align 8, !tbaa !51
  call void @completions_set_completer(ptr noundef %14, ptr noundef %15, ptr noundef %16)
  store i32 0, ptr %6, align 4
  br label %17

17:                                               ; preds = %11, %10
  call void @llvm.lifetime.end.p0(i64 8, ptr %5) #13
  %18 = load i32, ptr %6, align 4
  switch i32 %18, label %20 [
    i32 0, label %19
    i32 1, label %19
  ]

19:                                               ; preds = %17, %17
  ret void

20:                                               ; preds = %17
  unreachable
}

; Function Attrs: nounwind uwtable
define internal void @completions_get_completer(ptr noundef %0, ptr noundef %1, ptr noundef %2) #0 {
  %4 = alloca ptr, align 8
  %5 = alloca ptr, align 8
  %6 = alloca ptr, align 8
  store ptr %0, ptr %4, align 8, !tbaa !111
  store ptr %1, ptr %5, align 8, !tbaa !179
  store ptr %2, ptr %6, align 8, !tbaa !179
  %7 = load ptr, ptr %4, align 8, !tbaa !111
  %8 = getelementptr inbounds nuw %struct.completions_s, ptr %7, i32 0, i32 0
  %9 = load ptr, ptr %8, align 8, !tbaa !112
  %10 = load ptr, ptr %5, align 8, !tbaa !179
  store ptr %9, ptr %10, align 8, !tbaa !51
  %11 = load ptr, ptr %4, align 8, !tbaa !111
  %12 = getelementptr inbounds nuw %struct.completions_s, ptr %11, i32 0, i32 1
  %13 = load ptr, ptr %12, align 8, !tbaa !101
  %14 = load ptr, ptr %6, align 8, !tbaa !179
  store ptr %13, ptr %14, align 8, !tbaa !51
  ret void
}

; Function Attrs: nounwind uwtable
define internal ptr @ic_get_env() #0 {
  %1 = load ptr, ptr @rpenv, align 8, !tbaa !65
  %2 = icmp eq ptr %1, null
  br i1 %2, label %3, label %10

3:                                                ; preds = %0
  %4 = call ptr @ic_env_create(ptr noundef null, ptr noundef null, ptr noundef null)
  store ptr %4, ptr @rpenv, align 8, !tbaa !65
  %5 = load ptr, ptr @rpenv, align 8, !tbaa !65
  %6 = icmp ne ptr %5, null
  br i1 %6, label %7, label %9

7:                                                ; preds = %3
  %8 = call i32 @atexit(ptr noundef @ic_atexit) #13
  br label %9

9:                                                ; preds = %7, %3
  br label %10

10:                                               ; preds = %9, %0
  %11 = load ptr, ptr @rpenv, align 8, !tbaa !65
  ret ptr %11
}

; Function Attrs: nounwind uwtable
define dso_local ptr @ic_readline_ex(ptr noundef %0, ptr noundef %1, ptr noundef %2, ptr noundef %3, ptr noundef %4) #0 {
  %6 = alloca ptr, align 8
  %7 = alloca ptr, align 8
  %8 = alloca ptr, align 8
  %9 = alloca ptr, align 8
  %10 = alloca ptr, align 8
  %11 = alloca ptr, align 8
  %12 = alloca ptr, align 8
  %13 = alloca i32, align 4
  %14 = alloca ptr, align 8
  %15 = alloca ptr, align 8
  %16 = alloca ptr, align 8
  %17 = alloca ptr, align 8
  %18 = alloca ptr, align 8
  store ptr %0, ptr %7, align 8, !tbaa !11
  store ptr %1, ptr %8, align 8, !tbaa !51
  store ptr %2, ptr %9, align 8, !tbaa !51
  store ptr %3, ptr %10, align 8, !tbaa !51
  store ptr %4, ptr %11, align 8, !tbaa !51
  call void @llvm.lifetime.start.p0(i64 8, ptr %12) #13
  %19 = call ptr @ic_get_env()
  store ptr %19, ptr %12, align 8, !tbaa !65
  %20 = load ptr, ptr %12, align 8, !tbaa !65
  %21 = icmp eq ptr %20, null
  br i1 %21, label %22, label %23

22:                                               ; preds = %5
  store ptr null, ptr %6, align 8
  store i32 1, ptr %13, align 4
  br label %52

23:                                               ; preds = %5
  call void @llvm.lifetime.start.p0(i64 8, ptr %14) #13
  call void @llvm.lifetime.start.p0(i64 8, ptr %15) #13
  %24 = load ptr, ptr %12, align 8, !tbaa !65
  %25 = getelementptr inbounds nuw %struct.ic_env_s, ptr %24, i32 0, i32 4
  %26 = load ptr, ptr %25, align 8, !tbaa !100
  call void @completions_get_completer(ptr noundef %26, ptr noundef %14, ptr noundef %15)
  call void @llvm.lifetime.start.p0(i64 8, ptr %16) #13
  %27 = load ptr, ptr %12, align 8, !tbaa !65
  %28 = getelementptr inbounds nuw %struct.ic_env_s, ptr %27, i32 0, i32 9
  %29 = load ptr, ptr %28, align 8, !tbaa !174
  store ptr %29, ptr %16, align 8, !tbaa !51
  call void @llvm.lifetime.start.p0(i64 8, ptr %17) #13
  %30 = load ptr, ptr %12, align 8, !tbaa !65
  %31 = getelementptr inbounds nuw %struct.ic_env_s, ptr %30, i32 0, i32 10
  %32 = load ptr, ptr %31, align 8, !tbaa !175
  store ptr %32, ptr %17, align 8, !tbaa !51
  %33 = load ptr, ptr %8, align 8, !tbaa !51
  %34 = icmp ne ptr %33, null
  br i1 %34, label %35, label %38

35:                                               ; preds = %23
  %36 = load ptr, ptr %8, align 8, !tbaa !51
  %37 = load ptr, ptr %9, align 8, !tbaa !51
  call void @ic_set_default_completer(ptr noundef %36, ptr noundef %37)
  br label %38

38:                                               ; preds = %35, %23
  %39 = load ptr, ptr %10, align 8, !tbaa !51
  %40 = icmp ne ptr %39, null
  br i1 %40, label %41, label %44

41:                                               ; preds = %38
  %42 = load ptr, ptr %10, align 8, !tbaa !51
  %43 = load ptr, ptr %11, align 8, !tbaa !51
  call void @ic_set_default_highlighter(ptr noundef %42, ptr noundef %43)
  br label %44

44:                                               ; preds = %41, %38
  call void @llvm.lifetime.start.p0(i64 8, ptr %18) #13
  %45 = load ptr, ptr %7, align 8, !tbaa !11
  %46 = call ptr @ic_readline(ptr noundef %45)
  store ptr %46, ptr %18, align 8, !tbaa !11
  %47 = load ptr, ptr %14, align 8, !tbaa !51
  %48 = load ptr, ptr %15, align 8, !tbaa !51
  call void @ic_set_default_completer(ptr noundef %47, ptr noundef %48)
  %49 = load ptr, ptr %16, align 8, !tbaa !51
  %50 = load ptr, ptr %17, align 8, !tbaa !51
  call void @ic_set_default_highlighter(ptr noundef %49, ptr noundef %50)
  %51 = load ptr, ptr %18, align 8, !tbaa !11
  store ptr %51, ptr %6, align 8
  store i32 1, ptr %13, align 4
  call void @llvm.lifetime.end.p0(i64 8, ptr %18) #13
  call void @llvm.lifetime.end.p0(i64 8, ptr %17) #13
  call void @llvm.lifetime.end.p0(i64 8, ptr %16) #13
  call void @llvm.lifetime.end.p0(i64 8, ptr %15) #13
  call void @llvm.lifetime.end.p0(i64 8, ptr %14) #13
  br label %52

52:                                               ; preds = %44, %22
  call void @llvm.lifetime.end.p0(i64 8, ptr %12) #13
  %53 = load ptr, ptr %6, align 8
  ret ptr %53
}