; Function Attrs: nounwind uwtable
define dso_local ptr @ic_readline_ex(ptr noundef %0, ptr noundef %1, ptr noundef %2, ptr noundef %3, ptr noundef %4) local_unnamed_addr #0 {
  %6 = load ptr, ptr @rpenv, align 8, !tbaa !108
  %7 = icmp eq ptr %6, null
  br i1 %7, label %8, label %ic_get_env.exit.thread33

8:                                                ; preds = %5
  %9 = tail call fastcc ptr @ic_env_create(ptr noundef null, ptr noundef null, ptr noundef null)
  store ptr %9, ptr @rpenv, align 8, !tbaa !108
  %.not.i = icmp eq ptr %9, null
  br i1 %.not.i, label %ic_set_default_highlighter.exit31, label %ic_get_env.exit

ic_get_env.exit:                                  ; preds = %8
  %10 = tail call i32 @atexit(ptr noundef nonnull @ic_atexit) #32
  %.pre.i = load ptr, ptr @rpenv, align 8, !tbaa !108
  %11 = icmp eq ptr %.pre.i, null
  br i1 %11, label %ic_set_default_highlighter.exit31, label %ic_get_env.exit.thread33

ic_get_env.exit.thread33:                         ; preds = %5, %ic_get_env.exit
  %12 = phi ptr [ %.pre.i, %ic_get_env.exit ], [ %6, %5 ]
  %13 = getelementptr inbounds nuw i8, ptr %12, i64 32
  %14 = load ptr, ptr %13, align 8, !tbaa !100
  %15 = load ptr, ptr %14, align 8, !tbaa !109
  %16 = getelementptr inbounds nuw i8, ptr %14, i64 8
  %17 = load ptr, ptr %16, align 8, !tbaa !101
  %18 = getelementptr inbounds nuw i8, ptr %12, i64 72
  %19 = load ptr, ptr %18, align 8, !tbaa !169
  %20 = getelementptr inbounds nuw i8, ptr %12, i64 80
  %21 = load ptr, ptr %20, align 8, !tbaa !170
  %.not = icmp eq ptr %1, null
  br i1 %.not, label %ic_set_default_completer.exit, label %ic_get_env.exit.thread4.i

ic_get_env.exit.thread4.i:                        ; preds = %ic_get_env.exit.thread33
  store ptr %1, ptr %14, align 8, !tbaa !109
  store ptr %2, ptr %16, align 8, !tbaa !101
  br label %ic_set_default_completer.exit

ic_set_default_completer.exit:                    ; preds = %ic_get_env.exit.thread4.i, %ic_get_env.exit.thread33
  %.not18 = icmp eq ptr %3, null
  br i1 %.not18, label %ic_set_default_highlighter.exit, label %ic_get_env.exit.thread5.i

ic_get_env.exit.thread5.i:                        ; preds = %ic_set_default_completer.exit
  store ptr %3, ptr %18, align 8, !tbaa !169
  store ptr %4, ptr %20, align 8, !tbaa !170
  br label %ic_set_default_highlighter.exit

ic_set_default_highlighter.exit:                  ; preds = %ic_get_env.exit.thread5.i, %ic_set_default_completer.exit
  %22 = tail call ptr @ic_readline(ptr noundef %0)
  %23 = load ptr, ptr @rpenv, align 8, !tbaa !108
  %24 = icmp eq ptr %23, null
  br i1 %24, label %25, label %ic_set_default_completer.exit26

25:                                               ; preds = %ic_set_default_highlighter.exit
  %26 = tail call fastcc ptr @ic_env_create(ptr noundef null, ptr noundef null, ptr noundef null)
  store ptr %26, ptr @rpenv, align 8, !tbaa !108
  %.not.i.i23 = icmp eq ptr %26, null
  br i1 %.not.i.i23, label %32, label %ic_get_env.exit.i24

ic_get_env.exit.i24:                              ; preds = %25
  %27 = tail call i32 @atexit(ptr noundef nonnull @ic_atexit) #32
  %.pre.i.i25 = load ptr, ptr @rpenv, align 8, !tbaa !108
  %28 = icmp eq ptr %.pre.i.i25, null
  br i1 %28, label %32, label %ic_set_default_completer.exit26

ic_set_default_completer.exit26:                  ; preds = %ic_set_default_highlighter.exit, %ic_get_env.exit.i24
  %.pr = phi ptr [ %23, %ic_set_default_highlighter.exit ], [ %.pre.i.i25, %ic_get_env.exit.i24 ]
  %29 = getelementptr inbounds nuw i8, ptr %.pr, i64 32
  %30 = load ptr, ptr %29, align 8, !tbaa !100
  store ptr %15, ptr %30, align 8, !tbaa !109
  %31 = getelementptr inbounds nuw i8, ptr %30, i64 8
  store ptr %17, ptr %31, align 8, !tbaa !101
  br label %ic_get_env.exit.thread5.i27

32:                                               ; preds = %25, %ic_get_env.exit.i24
  %33 = tail call fastcc ptr @ic_env_create(ptr noundef null, ptr noundef null, ptr noundef null)
  store ptr %33, ptr @rpenv, align 8, !tbaa !108
  %.not.i.i28 = icmp eq ptr %33, null
  br i1 %.not.i.i28, label %ic_set_default_highlighter.exit31, label %ic_get_env.exit.i29

ic_get_env.exit.i29:                              ; preds = %32
  %34 = tail call i32 @atexit(ptr noundef nonnull @ic_atexit) #32
  %.pre.i.i30 = load ptr, ptr @rpenv, align 8, !tbaa !108
  %35 = icmp eq ptr %.pre.i.i30, null
  br i1 %35, label %ic_set_default_highlighter.exit31, label %ic_get_env.exit.thread5.i27

ic_get_env.exit.thread5.i27:                      ; preds = %ic_set_default_completer.exit26, %ic_get_env.exit.i29
  %36 = phi ptr [ %.pre.i.i30, %ic_get_env.exit.i29 ], [ %.pr, %ic_set_default_completer.exit26 ]
  %37 = getelementptr inbounds nuw i8, ptr %36, i64 72
  store ptr %19, ptr %37, align 8, !tbaa !169
  %38 = getelementptr inbounds nuw i8, ptr %36, i64 80
  store ptr %21, ptr %38, align 8, !tbaa !170
  br label %ic_set_default_highlighter.exit31

ic_set_default_highlighter.exit31:                ; preds = %8, %ic_get_env.exit.thread5.i27, %ic_get_env.exit.i29, %32, %ic_get_env.exit
  %.0 = phi ptr [ null, %ic_get_env.exit ], [ %22, %32 ], [ %22, %ic_get_env.exit.i29 ], [ %22, %ic_get_env.exit.thread5.i27 ], [ null, %8 ]
  ret ptr %.0
}